; Function Attrs: null_pointer_is_valid sspstrong uwtable
define internal range(i32 -268435456, 268435456) i32 @dissect_DataCodingScheme_PDU(ptr noundef %0, ptr noundef %1, ptr noundef %2, ptr readnone captures(none) %3) #0 {
  %5 = alloca ptr, align 8
  %6 = alloca %struct._asn1_ctx_t, align 8
  call void @llvm.lifetime.start.p0(i64 208, ptr nonnull %6) #8
  call void @asn1_ctx_init(ptr noundef nonnull %6, i32 noundef 1, i1 noundef zeroext true, ptr noundef %1)
  %7 = load i32, ptr @hf_s1ap_DataCodingScheme_PDU, align 4
  call void @llvm.lifetime.start.p0(i64 8, ptr nonnull %5) #8
  store ptr null, ptr %5, align 8
  %8 = call i32 @dissect_per_bit_string(ptr noundef %0, i32 noundef 0, ptr noundef nonnull %6, ptr noundef %2, i32 noundef %7, i32 noundef 8, i32 noundef 8, i1 noundef zeroext false, ptr noundef null, i32 noundef 0, ptr noundef nonnull %5, ptr noundef null)
  %9 = load ptr, ptr %5, align 8
  %.not.i = icmp eq ptr %9, null
  br i1 %.not.i, label %dissect_s1ap_DataCodingScheme.exit, label %10

10:                                               ; preds = %4
  %11 = getelementptr inbounds nuw i8, ptr %6, i64 16
  %12 = load ptr, ptr %11, align 8
  %13 = getelementptr inbounds nuw i8, ptr %12, i64 408
  %14 = load ptr, ptr %13, align 8
  %15 = load i32, ptr @proto_s1ap, align 4
  %16 = call ptr @p_get_proto_data(ptr noundef %14, ptr noundef %12, i32 noundef %15, i32 noundef 0)
  %.not.i.i = icmp eq ptr %16, null
  br i1 %.not.i.i, label %17, label %s1ap_get_private_data.exit.i

17:                                               ; preds = %10
  %18 = load ptr, ptr %13, align 8
  %19 = call noalias dereferenceable_or_null(64) ptr @wmem_alloc0(ptr noundef %18, i64 noundef 64) #9
  %20 = load ptr, ptr %13, align 8
  %21 = load i32, ptr @proto_s1ap, align 4
  call void @p_add_proto_data(ptr noundef %20, ptr noundef %12, i32 noundef %21, i32 noundef 0, ptr noundef %19)
  br label %s1ap_get_private_data.exit.i

s1ap_get_private_data.exit.i:                     ; preds = %17, %10
  %.0.i.i = phi ptr [ %16, %10 ], [ %19, %17 ]
  %22 = getelementptr inbounds nuw i8, ptr %6, i64 24
  %23 = load ptr, ptr %22, align 8
  %24 = load i32, ptr @ett_s1ap_DataCodingScheme, align 4
  %25 = call ptr @proto_item_add_subtree(ptr noundef %23, i32 noundef %24)
  %26 = load ptr, ptr %5, align 8
  %27 = load ptr, ptr %11, align 8
  %28 = call zeroext i8 @dissect_cbs_data_coding_scheme(ptr noundef %26, ptr noundef %27, ptr noundef %25, i16 noundef zeroext 0)
  %29 = getelementptr inbounds nuw i8, ptr %.0.i.i, i64 28
  store i8 %28, ptr %29, align 4
  br label %dissect_s1ap_DataCodingScheme.exit

dissect_s1ap_DataCodingScheme.exit:               ; preds = %4, %s1ap_get_private_data.exit.i
  call void @llvm.lifetime.end.p0(i64 8, ptr nonnull %5) #8
  %30 = add i32 %8, 7
  %31 = ashr i32 %30, 3
  call void @llvm.lifetime.end.p0(i64 208, ptr nonnull %6) #8
  ret i32 %31
}